target datalayout = "e-m:e-p270:32:32-p271:32:32-p272:64:64-i64:64-i128:128-f80:128-n8:16:32:64-S128"
target triple = "x86_64-pc-linux-gnu"

%"class.std::__cxx11::basic_string" = type { %"struct.std::__cxx11::basic_string<char>::_Alloc_hider", i64, %union.anon }
%"struct.std::__cxx11::basic_string<char>::_Alloc_hider" = type { ptr }
%union.anon = type { i64, [8 x i8] }
%"class.rocksdb::Status" = type { i8, i8, i8, i8, i8, i8, %"class.std::unique_ptr" }
%"class.std::unique_ptr" = type { %"struct.std::__uniq_ptr_data" }
%"struct.std::__uniq_ptr_data" = type { %"class.std::__uniq_ptr_impl" }
%"class.std::__uniq_ptr_impl" = type { %"class.std::tuple" }
%"class.std::tuple" = type { %"struct.std::_Tuple_impl" }
%"struct.std::_Tuple_impl" = type { %"struct.std::_Head_base.4" }
%"struct.std::_Head_base.4" = type { ptr }
%"class.std::variant" = type { %"struct.std::__detail::__variant::_Variant_base.base", i8 }
%"struct.std::__detail::__variant::_Variant_base.base" = type { %"struct.std::__detail::__variant::_Move_assign_base.base" }
%"struct.std::__detail::__variant::_Move_assign_base.base" = type { %"struct.std::__detail::__variant::_Copy_assign_base.base" }
%"struct.std::__detail::__variant::_Copy_assign_base.base" = type { %"struct.std::__detail::__variant::_Move_ctor_base.base" }
%"struct.std::__detail::__variant::_Move_ctor_base.base" = type { %"struct.std::__detail::__variant::_Copy_ctor_base.base" }
%"struct.std::__detail::__variant::_Copy_ctor_base.base" = type { %"struct.std::__detail::__variant::_Variant_storage.base" }
%"struct.std::__detail::__variant::_Variant_storage.base" = type <{ %"union.std::__detail::__variant::_Variadic_union", i8 }>
%"union.std::__detail::__variant::_Variadic_union" = type { %"union.std::__detail::__variant::_Variadic_union.457" }
%"union.std::__detail::__variant::_Variadic_union.457" = type { %"struct.std::__detail::__variant::_Uninitialized.458" }
%"struct.std::__detail::__variant::_Uninitialized.458" = type { %"struct.rocksdb::experimental::SelectKeySegment" }
%"struct.rocksdb::experimental::SelectKeySegment" = type { i16 }
%"class.rocksdb::SmallEnumSet.471" = type { i64 }
%"class.rocksdb::experimental::(anonymous namespace)::BytewiseMinMaxSstQueryFilterConfig" = type <{ %"class.rocksdb::experimental::(anonymous namespace)::SstQueryFilterConfigImpl", i8, [7 x i8] }>
%"class.rocksdb::experimental::(anonymous namespace)::SstQueryFilterConfigImpl" = type { %"class.rocksdb::experimental::SstQueryFilterConfig", %"class.std::variant", %"class.rocksdb::SmallEnumSet.471" }
%"class.rocksdb::experimental::SstQueryFilterConfig" = type { ptr }
%"struct.rocksdb::experimental::(anonymous namespace)::BytewiseMinMaxSstQueryFilterConfig::MyBuilder" = type { %"class.rocksdb::experimental::(anonymous namespace)::SstQueryFilterBuilder", ptr, i8, %"class.std::__cxx11::basic_string", %"class.std::__cxx11::basic_string", i8, %"class.rocksdb::Status" }
%"class.rocksdb::experimental::(anonymous namespace)::SstQueryFilterBuilder" = type { ptr }

; Function Attrs: inlinehint mustprogress nounwind uwtable
define linkonce_odr noundef i32 @_ZN7rocksdb12VarintLengthEm(i64 noundef %0) #1 comdat {
  %2 = alloca i64, align 8
  %3 = alloca i32, align 4
  store i64 %0, ptr %2, align 8, !tbaa !4
  call void @llvm.lifetime.start.p0(i64 4, ptr %3) #4
  store i32 1, ptr %3, align 4, !tbaa !58
  br label %4

4:                                                ; preds = %7, %1
  %5 = load i64, ptr %2, align 8, !tbaa !4
  %6 = icmp uge i64 %5, 128
  br i1 %6, label %7, label %12

7:                                                ; preds = %4
  %8 = load i64, ptr %2, align 8, !tbaa !4
  %9 = lshr i64 %8, 7
  store i64 %9, ptr %2, align 8, !tbaa !4
  %10 = load i32, ptr %3, align 4, !tbaa !58
  %11 = add nsw i32 %10, 1
  store i32 %11, ptr %3, align 4, !tbaa !58
  br label %4, !llvm.loop !2131

12:                                               ; preds = %4
  %13 = load i32, ptr %3, align 4, !tbaa !58
  call void @llvm.lifetime.end.p0(i64 4, ptr %3) #4
  ret i32 %13
}

; Function Attrs: mustprogress nounwind uwtable
define available_externally noundef i64 @_ZNKSt7__cxx1112basic_stringIcSt11char_traitsIcESaIcEE4sizeEv(ptr noundef nonnull align 8 dereferenceable(32) %0) #3 align 2 {
  %2 = alloca ptr, align 8
  store ptr %0, ptr %2, align 8, !tbaa !29
  %3 = load ptr, ptr %2, align 8
  %4 = getelementptr inbounds nuw %"class.std::__cxx11::basic_string", ptr %3, i32 0, i32 1
  %5 = load i64, ptr %4, align 8, !tbaa !825
  ret i64 %5
}

; Function Attrs: mustprogress nounwind uwtable
define internal noundef i64 @_ZN7rocksdb12experimental12_GLOBAL__N_130GetFilterInputSerializedLengthERKSt7variantIJNS0_14SelectWholeKeyENS0_16SelectKeySegmentENS0_21SelectKeySegmentRangeENS0_21SelectLegacyKeyPrefixENS0_19SelectUserTimestampENS0_16SelectColumnNameEEE(ptr noundef nonnull align 2 dereferenceable(3) %0) #3 {
  %2 = alloca ptr, align 8
  store ptr %0, ptr %2, align 8, !tbaa !679
  ret i64 1
}

; Function Attrs: mustprogress nounwind uwtable
define available_externally noundef zeroext i1 @_ZNKSt7__cxx1112basic_stringIcSt11char_traitsIcESaIcEE5emptyEv(ptr noundef nonnull align 8 dereferenceable(32) %0) #3 align 2 {
  %2 = alloca ptr, align 8
  store ptr %0, ptr %2, align 8, !tbaa !29
  %3 = load ptr, ptr %2, align 8
  %4 = call noundef i64 @_ZNKSt7__cxx1112basic_stringIcSt11char_traitsIcESaIcEE4sizeEv(ptr noundef nonnull align 8 dereferenceable(32) %3) #4
  %5 = icmp eq i64 %4, 0
  ret i1 %5
}

; Function Attrs: mustprogress uwtable
define internal noundef i64 @_ZNK7rocksdb12experimental12_GLOBAL__N_134BytewiseMinMaxSstQueryFilterConfig9MyBuilder16GetEncodedLengthEv(ptr noundef nonnull align 8 dereferenceable(112) %0) unnamed_addr #5 align 2 {
  %2 = alloca i64, align 8
  %3 = alloca ptr, align 8
  store ptr %0, ptr %3, align 8, !tbaa !2069
  %4 = load ptr, ptr %3, align 8
  %5 = getelementptr inbounds nuw %"struct.rocksdb::experimental::(anonymous namespace)::BytewiseMinMaxSstQueryFilterConfig::MyBuilder", ptr %4, i32 0, i32 4
  %6 = call noundef zeroext i1 @_ZNKSt7__cxx1112basic_stringIcSt11char_traitsIcESaIcEE5emptyEv(ptr noundef nonnull align 8 dereferenceable(32) %5) #4
  br i1 %6, label %7, label %8

7:                                                ; preds = %1
  store i64 0, ptr %2, align 8
  br label %36

8:                                                ; preds = %1
  %9 = getelementptr inbounds nuw %"struct.rocksdb::experimental::(anonymous namespace)::BytewiseMinMaxSstQueryFilterConfig::MyBuilder", ptr %4, i32 0, i32 1
  %10 = load ptr, ptr %9, align 8, !tbaa !2077
  %11 = getelementptr inbounds nuw %"class.rocksdb::experimental::(anonymous namespace)::SstQueryFilterConfigImpl", ptr %10, i32 0, i32 1
  %12 = call noundef i64 @_ZN7rocksdb12experimental12_GLOBAL__N_130GetFilterInputSerializedLengthERKSt7variantIJNS0_14SelectWholeKeyENS0_16SelectKeySegmentENS0_21SelectKeySegmentRangeENS0_21SelectLegacyKeyPrefixENS0_19SelectUserTimestampENS0_16SelectColumnNameEEE(ptr noundef nonnull align 2 dereferenceable(3) %11)
  %13 = add i64 2, %12
  %14 = getelementptr inbounds nuw %"struct.rocksdb::experimental::(anonymous namespace)::BytewiseMinMaxSstQueryFilterConfig::MyBuilder", ptr %4, i32 0, i32 1
  %15 = load ptr, ptr %14, align 8, !tbaa !2077
  %16 = getelementptr inbounds nuw %"class.rocksdb::experimental::(anonymous namespace)::BytewiseMinMaxSstQueryFilterConfig", ptr %15, i32 0, i32 1
  %17 = load i8, ptr %16, align 8, !tbaa !2041, !range !113, !noundef !114
  %18 = trunc i8 %17 to i1
  br i1 %18, label %19, label %22

19:                                               ; preds = %8
  %20 = getelementptr inbounds nuw %"struct.rocksdb::experimental::(anonymous namespace)::BytewiseMinMaxSstQueryFilterConfig::MyBuilder", ptr %4, i32 0, i32 4
  %21 = call noundef i64 @_ZNKSt7__cxx1112basic_stringIcSt11char_traitsIcESaIcEE4sizeEv(ptr noundef nonnull align 8 dereferenceable(32) %20) #4
  br label %25

22:                                               ; preds = %8
  %23 = getelementptr inbounds nuw %"struct.rocksdb::experimental::(anonymous namespace)::BytewiseMinMaxSstQueryFilterConfig::MyBuilder", ptr %4, i32 0, i32 3
  %24 = call noundef i64 @_ZNKSt7__cxx1112basic_stringIcSt11char_traitsIcESaIcEE4sizeEv(ptr noundef nonnull align 8 dereferenceable(32) %23) #4
  br label %25

25:                                               ; preds = %22, %19
  %26 = phi i64 [ %21, %19 ], [ %24, %22 ]
  %27 = call noundef i32 @_ZN7rocksdb12VarintLengthEm(i64 noundef %26)
  %28 = sext i32 %27 to i64
  %29 = add i64 %13, %28
  %30 = getelementptr inbounds nuw %"struct.rocksdb::experimental::(anonymous namespace)::BytewiseMinMaxSstQueryFilterConfig::MyBuilder", ptr %4, i32 0, i32 3
  %31 = call noundef i64 @_ZNKSt7__cxx1112basic_stringIcSt11char_traitsIcESaIcEE4sizeEv(ptr noundef nonnull align 8 dereferenceable(32) %30) #4
  %32 = add i64 %29, %31
  %33 = getelementptr inbounds nuw %"struct.rocksdb::experimental::(anonymous namespace)::BytewiseMinMaxSstQueryFilterConfig::MyBuilder", ptr %4, i32 0, i32 4
  %34 = call noundef i64 @_ZNKSt7__cxx1112basic_stringIcSt11char_traitsIcESaIcEE4sizeEv(ptr noundef nonnull align 8 dereferenceable(32) %33) #4
  %35 = add i64 %32, %34
  store i64 %35, ptr %2, align 8
  br label %36

36:                                               ; preds = %25, %7
  %37 = load i64, ptr %2, align 8
  ret i64 %37
}