; Function Attrs: mustprogress nofree norecurse nosync nounwind willreturn memory(read, inaccessiblemem: none) uwtable
define internal noundef i64 @_ZNK7rocksdb12experimental12_GLOBAL__N_134BytewiseMinMaxSstQueryFilterConfig9MyBuilder16GetEncodedLengthEv(ptr noundef nonnull readonly align 8 captures(none) dereferenceable(112) %0) unnamed_addr #22 align 2 {
  %2 = getelementptr inbounds nuw i8, ptr %0, i64 64
  %3 = load i64, ptr %2, align 8, !tbaa !16
  %4 = icmp eq i64 %3, 0
  br i1 %4, label %22, label %5

5:                                                ; preds = %1
  %6 = getelementptr inbounds nuw i8, ptr %0, i64 8
  %7 = load ptr, ptr %6, align 8, !tbaa !999
  %8 = getelementptr inbounds nuw i8, ptr %7, i64 24
  %9 = load i8, ptr %8, align 8, !tbaa !692, !range !45, !noundef !46
  %10 = trunc nuw i8 %9 to i1
  %11 = getelementptr inbounds nuw i8, ptr %0, i64 32
  %12 = load i64, ptr %11, align 8
  %13 = select i1 %10, i64 %3, i64 %12
  %14 = icmp ugt i64 %13, 127
  br i1 %14, label %.lr.ph.i, label %_ZN7rocksdb12VarintLengthEm.exit

.lr.ph.i:                                         ; preds = %5, %.lr.ph.i
  %.06.i = phi i32 [ %16, %.lr.ph.i ], [ 1, %5 ]
  %.045.i = phi i64 [ %15, %.lr.ph.i ], [ %13, %5 ]
  %15 = lshr i64 %.045.i, 7
  %16 = add nuw nsw i32 %.06.i, 1
  %17 = icmp ugt i64 %.045.i, 16383
  br i1 %17, label %.lr.ph.i, label %_ZN7rocksdb12VarintLengthEm.exit.loopexit, !llvm.loop !1021

_ZN7rocksdb12VarintLengthEm.exit.loopexit:        ; preds = %.lr.ph.i
  %18 = zext nneg i32 %16 to i64
  br label %_ZN7rocksdb12VarintLengthEm.exit

_ZN7rocksdb12VarintLengthEm.exit:                 ; preds = %_ZN7rocksdb12VarintLengthEm.exit.loopexit, %5
  %.0.lcssa.i = phi i64 [ 1, %5 ], [ %18, %_ZN7rocksdb12VarintLengthEm.exit.loopexit ]
  %19 = add i64 %3, 3
  %20 = add i64 %19, %.0.lcssa.i
  %21 = add i64 %20, %12
  br label %22

22:                                               ; preds = %1, %_ZN7rocksdb12VarintLengthEm.exit
  %.0 = phi i64 [ %21, %_ZN7rocksdb12VarintLengthEm.exit ], [ 0, %1 ]
  ret i64 %.0
}